; Function Attrs: nounwind sspstrong uwtable
define internal i64 @objid_hash(i64 noundef %0) #0 {
  %2 = tail call i64 @rb_obj_id(i64 noundef %0) #28
  %3 = and i64 %2, 1
  %.not = icmp eq i64 %3, 0
  br i1 %.not, label %4, label %6

4:                                                ; preds = %1
  %5 = tail call i64 @rb_big_hash(i64 noundef %2) #28
  br label %6

6:                                                ; preds = %4, %1
  %.0 = phi i64 [ %2, %1 ], [ %5, %4 ]
  %7 = and i64 %.0, 1
  %.not.i = icmp eq i64 %7, 0
  br i1 %.not.i, label %10, label %8

8:                                                ; preds = %6
  %9 = ashr i64 %.0, 1
  br label %rb_num2long_inline.exit

10:                                               ; preds = %6
  %11 = tail call i64 @rb_num2long(i64 noundef %.0) #28
  br label %rb_num2long_inline.exit

rb_num2long_inline.exit:                          ; preds = %8, %10
  %.0.i = phi i64 [ %9, %8 ], [ %11, %10 ]
  %12 = tail call i64 @rb_hash_start(i64 noundef %.0.i) #28
  %13 = add i64 %12, 2198850233
  %14 = zext i64 %13 to i128
  %15 = mul nuw nsw i128 %14, 3317948294049201653
  %16 = lshr i128 %15, 64
  %17 = xor i128 %16, %15
  %18 = trunc i128 %17 to i64
  ret i64 %18
}